; Function Attrs: nounwind uwtable
define ptr @l_Lean_Grind_CommRing_Poly_mulConst_x27(ptr noundef %0, ptr noundef %1, ptr noundef %2) local_unnamed_addr #1 {
  %4 = ptrtoint ptr %2 to i64
  %5 = and i64 %4, 1
  %.not.i12 = icmp eq i64 %5, 0
  br i1 %.not.i12, label %9, label %6

6:                                                ; preds = %3
  %7 = lshr i64 %4, 1
  %8 = trunc i64 %7 to i32
  br label %lean_obj_tag.exit

9:                                                ; preds = %3
  %10 = getelementptr i8, ptr %2, i64 4
  %.val.i = load i32, ptr %10, align 4
  %11 = lshr i32 %.val.i, 24
  br label %lean_obj_tag.exit

lean_obj_tag.exit:                                ; preds = %6, %9
  %.0.i = phi i32 [ %8, %6 ], [ %11, %9 ]
  %12 = icmp eq i32 %.0.i, 0
  br i1 %12, label %13, label %15

13:                                               ; preds = %lean_obj_tag.exit
  %14 = tail call ptr @l_Lean_Grind_CommRing_Poly_mulConst(ptr noundef %1, ptr noundef %0) #6
  br label %34

15:                                               ; preds = %lean_obj_tag.exit
  %16 = getelementptr inbounds nuw i8, ptr %2, i64 8
  %17 = load ptr, ptr %16, align 8, !tbaa !6
  %18 = ptrtoint ptr %17 to i64
  %19 = and i64 %18, 1
  %.not = icmp eq i64 %19, 0
  br i1 %.not, label %20, label %lean_inc.exit

20:                                               ; preds = %15
  %.val.i13 = load i32, ptr %17, align 4, !tbaa !10
  %21 = icmp sgt i32 %.val.i13, 0
  br i1 %21, label %22, label %24, !prof !5

22:                                               ; preds = %20
  %23 = add nuw i32 %.val.i13, 1
  store i32 %23, ptr %17, align 4, !tbaa !10
  br label %lean_inc.exit

24:                                               ; preds = %20
  %.not.i14 = icmp eq i32 %.val.i13, 0
  br i1 %.not.i14, label %lean_inc.exit, label %25

25:                                               ; preds = %24
  tail call void @lean_inc_ref_cold(ptr noundef nonnull %17) #6
  br label %lean_inc.exit

lean_inc.exit:                                    ; preds = %25, %24, %22, %15
  br i1 %.not.i12, label %26, label %lean_dec.exit

26:                                               ; preds = %lean_inc.exit
  %27 = load i32, ptr %2, align 4, !tbaa !10
  %28 = icmp sgt i32 %27, 1
  br i1 %28, label %29, label %31, !prof !5

29:                                               ; preds = %26
  %30 = add nsw i32 %27, -1
  store i32 %30, ptr %2, align 4, !tbaa !10
  br label %lean_dec.exit

31:                                               ; preds = %26
  %.not.i = icmp eq i32 %27, 0
  br i1 %.not.i, label %lean_dec.exit, label %32

32:                                               ; preds = %31
  tail call void @lean_dec_ref_cold(ptr noundef nonnull %2) #6
  br label %lean_dec.exit

lean_dec.exit:                                    ; preds = %32, %31, %29, %lean_inc.exit
  %33 = tail call ptr @l_Lean_Grind_CommRing_Poly_mulConstC(ptr noundef %1, ptr noundef %0, ptr noundef %17) #6
  br label %34

34:                                               ; preds = %lean_dec.exit, %13
  %.0 = phi ptr [ %14, %13 ], [ %33, %lean_dec.exit ]
  ret ptr %.0
}